target datalayout = "e-m:e-p270:32:32-p271:32:32-p272:64:64-i64:64-i128:128-f80:128-n8:16:32:64-S128"
target triple = "x86_64-pc-linux-gnu"

%struct.darktable_t = type { %struct.dt_codepath_t, i32, i32, ptr, ptr, ptr, ptr, ptr, ptr, ptr, ptr, ptr, ptr, ptr, ptr, ptr, ptr, ptr, ptr, ptr, ptr, ptr, ptr, ptr, ptr, ptr, ptr, ptr, ptr, ptr, [64 x %struct.dt_pthread_mutex_t], %struct.dt_pthread_mutex_t, %struct.dt_pthread_mutex_t, %struct.dt_pthread_mutex_t, %struct.dt_pthread_mutex_t, %struct.dt_pthread_mutex_t, ptr, ptr, ptr, ptr, ptr, ptr, ptr, ptr, ptr, ptr, ptr, ptr, ptr, %struct.dt_lua_state_t, ptr, double, ptr, i32, [47 x i32], i32, i32, ptr, ptr, %struct.dt_sys_resources_t, %struct.dt_backthumb_t, %struct.dt_gimp_t }
%struct.dt_codepath_t = type { i8, [3 x i8] }
%struct.dt_pthread_mutex_t = type { %union.pthread_mutex_t }
%union.pthread_mutex_t = type { %struct.__pthread_mutex_s }
%struct.__pthread_mutex_s = type { i32, i32, i32, i32, i32, i16, i16, %struct.__pthread_internal_list }
%struct.__pthread_internal_list = type { ptr, ptr }
%struct.dt_lua_state_t = type { i32 }
%struct.dt_sys_resources_t = type { i64, i64, ptr, ptr, i32 }
%struct.dt_backthumb_t = type { double, double, i32, i32, i32, i32 }
%struct.dt_gimp_t = type { i32, ptr, ptr, i32, i32 }
%struct.dt_dev_pixelpipe_t = type { %struct.dt_dev_pixelpipe_cache_t, i32, i64, ptr, i32, i32, float, i32, i32, [12 x i8], %struct.dt_iop_buffer_dsc_t, ptr, ptr, ptr, ptr, i32, i32, i32, i32, ptr, i64, i32, i32, float, float, float, i64, %struct.dt_pthread_mutex_t, %struct.dt_pthread_mutex_t, %struct.dt_pthread_mutex_t, i32, i32, i32, %struct.dt_dev_detail_mask_t, i32, i32, i32, i32, i32, i32, i32, i32, i32, i32, i32, i32, i32, i32, [8 x i8], %struct.dt_image_t, i32, ptr, i32, ptr, ptr, ptr, i32, ptr, i64, [8 x i8] }
%struct.dt_dev_pixelpipe_cache_t = type { i32, i64, i64, ptr, ptr, ptr, ptr, ptr, ptr, i64, i32, i64, i64, i32, i32, i32 }
%struct.dt_iop_buffer_dsc_t = type { i32, i32, i32, [6 x [6 x i8]], %struct.anon, [12 x i8], %struct.anon.0, [4 x float], i32, [12 x i8] }
%struct.anon = type { i16, i16 }
%struct.anon.0 = type { i32, [12 x i8], [4 x float] }
%struct.dt_dev_detail_mask_t = type { %struct.dt_iop_roi_t, i64, ptr }
%struct.dt_iop_roi_t = type { i32, i32, i32, i32, float }
%struct.dt_image_t = type { i32, i32, float, float, float, float, float, float, float, [64 x i8], [64 x i8], [128 x i8], [64 x i8], [64 x i8], [64 x i8], [64 x i8], i64, i32, %union.dt_image_correction_data_t, [64 x i8], [64 x i8], [64 x i8], [128 x i8], i32, [256 x i8], i32, i32, i32, i32, i32, i32, i32, i32, i32, i32, float, i32, i32, i32, i32, i32, i32, i64, i64, i64, i64, i32, [12 x i8], %struct.dt_iop_buffer_dsc_t, [9 x float], ptr, i32, i32, %struct.dt_image_raw_parameters_t, %struct.dt_image_geoloc_t, %struct._color_harmony_t, i16, [4 x i16], i32, i32, float, float, [4 x float], [4 x [3 x float]], [4 x float], ptr, ptr, i32, i32, [8 x i8] }
%union.dt_image_correction_data_t = type { %struct.anon.2 }
%struct.anon.2 = type { i32, float, [11 x float], [11 x float], [11 x float], [11 x float], [11 x float] }
%struct.dt_image_raw_parameters_t = type { i32 }
%struct.dt_image_geoloc_t = type { double, double, double }
%struct._color_harmony_t = type { i32, i32, i32 }

@darktable = external global %struct.darktable_t, align 8
@.str = private unnamed_addr constant [61 x i8] c"Session fullpipe cache report. hits/run=%.2f, hits/test=%.3f\00", align 1

; Function Attrs: nounwind uwtable
define void @dt_dev_pixelpipe_cache_cleanup(ptr noundef %0) #0 {
  %2 = alloca ptr, align 8
  %3 = alloca ptr, align 8
  %4 = alloca i32, align 4
  store ptr %0, ptr %2, align 8, !tbaa !6
  call void @llvm.lifetime.start.p0(i64 8, ptr %3) #17
  %5 = load ptr, ptr %2, align 8, !tbaa !6
  %6 = getelementptr inbounds nuw %struct.dt_dev_pixelpipe_t, ptr %5, i32 0, i32 0
  store ptr %6, ptr %3, align 8, !tbaa !15
  %7 = load ptr, ptr %2, align 8, !tbaa !6
  %8 = getelementptr inbounds nuw %struct.dt_dev_pixelpipe_t, ptr %7, i32 0, i32 45
  %9 = load i32, ptr %8, align 4, !tbaa !34
  %10 = icmp eq i32 %9, 2
  br i1 %10, label %11, label %45

11:                                               ; preds = %1
  br label %12

12:                                               ; preds = %11
  %13 = load i32, ptr getelementptr inbounds nuw (%struct.darktable_t, ptr @darktable, i32 0, i32 2), align 8, !tbaa !54
  %14 = and i32 33554432, %13
  %15 = icmp ne i32 %14, 0
  br i1 %15, label %16, label %42

16:                                               ; preds = %12
  %17 = load i32, ptr getelementptr inbounds nuw (%struct.darktable_t, ptr @darktable, i32 0, i32 2), align 8, !tbaa !54
  %18 = xor i32 %17, -1
  %19 = and i32 0, %18
  %20 = icmp ne i32 %19, 0
  br i1 %20, label %42, label %21

21:                                               ; preds = %16
  %22 = load ptr, ptr %3, align 8, !tbaa !15
  %23 = getelementptr inbounds nuw %struct.dt_dev_pixelpipe_cache_t, ptr %22, i32 0, i32 12
  %24 = load i64, ptr %23, align 8, !tbaa !24
  %25 = uitofp i64 %24 to double
  %26 = load ptr, ptr %2, align 8, !tbaa !6
  %27 = getelementptr inbounds nuw %struct.dt_dev_pixelpipe_t, ptr %26, i32 0, i32 2
  %28 = load i64, ptr %27, align 16, !tbaa !86
  %29 = uitofp i64 %28 to double
  %30 = call reassoc nsz arcp contract afn double @llvm.maxnum.f64(double 1.000000e+00, double %29)
  %31 = fdiv reassoc nsz arcp contract afn double %25, %30
  %32 = load ptr, ptr %3, align 8, !tbaa !15
  %33 = getelementptr inbounds nuw %struct.dt_dev_pixelpipe_cache_t, ptr %32, i32 0, i32 12
  %34 = load i64, ptr %33, align 8, !tbaa !24
  %35 = uitofp i64 %34 to double
  %36 = load ptr, ptr %3, align 8, !tbaa !15
  %37 = getelementptr inbounds nuw %struct.dt_dev_pixelpipe_cache_t, ptr %36, i32 0, i32 11
  %38 = load i64, ptr %37, align 8, !tbaa !22
  %39 = uitofp i64 %38 to double
  %40 = call reassoc nsz arcp contract afn double @llvm.maxnum.f64(double 1.000000e+00, double %39)
  %41 = fdiv reassoc nsz arcp contract afn double %35, %40
  call void (ptr, ...) @dt_print_ext(ptr noundef @.str, double noundef %31, double noundef %41)
  br label %42

42:                                               ; preds = %21, %16, %12
  br label %43

43:                                               ; preds = %42
  br label %44

44:                                               ; preds = %43
  br label %45

45:                                               ; preds = %44, %1
  call void @llvm.lifetime.start.p0(i64 4, ptr %4) #17
  store i32 0, ptr %4, align 4, !tbaa !11
  br label %46

46:                                               ; preds = %67, %45
  %47 = load i32, ptr %4, align 4, !tbaa !11
  %48 = load ptr, ptr %3, align 8, !tbaa !15
  %49 = getelementptr inbounds nuw %struct.dt_dev_pixelpipe_cache_t, ptr %48, i32 0, i32 0
  %50 = load i32, ptr %49, align 8, !tbaa !17
  %51 = icmp slt i32 %47, %50
  br i1 %51, label %53, label %52

52:                                               ; preds = %46
  call void @llvm.lifetime.end.p0(i64 4, ptr %4) #17
  br label %70

53:                                               ; preds = %46
  %54 = load ptr, ptr %3, align 8, !tbaa !15
  %55 = getelementptr inbounds nuw %struct.dt_dev_pixelpipe_cache_t, ptr %54, i32 0, i32 3
  %56 = load ptr, ptr %55, align 8, !tbaa !27
  %57 = load i32, ptr %4, align 4, !tbaa !11
  %58 = sext i32 %57 to i64
  %59 = getelementptr inbounds ptr, ptr %56, i64 %58
  %60 = load ptr, ptr %59, align 8, !tbaa !33
  call void @free(ptr noundef %60) #17
  %61 = load ptr, ptr %3, align 8, !tbaa !15
  %62 = getelementptr inbounds nuw %struct.dt_dev_pixelpipe_cache_t, ptr %61, i32 0, i32 3
  %63 = load ptr, ptr %62, align 8, !tbaa !27
  %64 = load i32, ptr %4, align 4, !tbaa !11
  %65 = sext i32 %64 to i64
  %66 = getelementptr inbounds ptr, ptr %63, i64 %65
  store ptr null, ptr %66, align 8, !tbaa !33
  br label %67

67:                                               ; preds = %53
  %68 = load i32, ptr %4, align 4, !tbaa !11
  %69 = add nsw i32 %68, 1
  store i32 %69, ptr %4, align 4, !tbaa !11
  br label %46

70:                                               ; preds = %52
  %71 = load ptr, ptr %3, align 8, !tbaa !15
  %72 = getelementptr inbounds nuw %struct.dt_dev_pixelpipe_cache_t, ptr %71, i32 0, i32 3
  %73 = load ptr, ptr %72, align 8, !tbaa !27
  call void @free(ptr noundef %73) #17
  %74 = load ptr, ptr %3, align 8, !tbaa !15
  %75 = getelementptr inbounds nuw %struct.dt_dev_pixelpipe_cache_t, ptr %74, i32 0, i32 3
  store ptr null, ptr %75, align 8, !tbaa !27
  call void @llvm.lifetime.end.p0(i64 8, ptr %3) #17
  ret void
}