; Function Attrs: nounwind uwtable
define void @dt_dev_pixelpipe_cache_cleanup(ptr noundef captures(none) %0) local_unnamed_addr #0 {
  %2 = getelementptr inbounds nuw i8, ptr %0, i64 620
  %3 = load i32, ptr %2, align 4, !tbaa !28
  %4 = icmp eq i32 %3, 2
  br i1 %4, label %5, label %22

5:                                                ; preds = %1
  %6 = load i32, ptr getelementptr inbounds nuw (i8, ptr @darktable, i64 8), align 8, !tbaa !48
  %7 = and i32 %6, 33554432
  %.not = icmp eq i32 %7, 0
  br i1 %.not, label %22, label %8

8:                                                ; preds = %5
  %9 = getelementptr inbounds nuw i8, ptr %0, i64 96
  %10 = load i64, ptr %9, align 8, !tbaa !80
  %11 = uitofp i64 %10 to double
  %12 = getelementptr inbounds nuw i8, ptr %0, i64 128
  %13 = load i64, ptr %12, align 16, !tbaa !81
  %14 = uitofp i64 %13 to double
  %15 = tail call reassoc nsz arcp contract afn double @llvm.maxnum.f64(double %14, double 1.000000e+00)
  %16 = fdiv reassoc nsz arcp contract afn double %11, %15
  %17 = getelementptr inbounds nuw i8, ptr %0, i64 88
  %18 = load i64, ptr %17, align 8, !tbaa !82
  %19 = uitofp i64 %18 to double
  %20 = tail call reassoc nsz arcp contract afn double @llvm.maxnum.f64(double %19, double 1.000000e+00)
  %21 = fdiv reassoc nsz arcp contract afn double %11, %20
  tail call void (ptr, ...) @dt_print_ext(ptr noundef nonnull @.str, double noundef %16, double noundef %21) #27
  br label %22

22:                                               ; preds = %5, %8, %1
  %23 = load i32, ptr %0, align 8, !tbaa !6
  %24 = icmp sgt i32 %23, 0
  br i1 %24, label %.lr.ph, label %._crit_edge

.lr.ph:                                           ; preds = %22
  %25 = getelementptr inbounds nuw i8, ptr %0, i64 24
  br label %28

._crit_edge:                                      ; preds = %28, %22
  %26 = getelementptr inbounds nuw i8, ptr %0, i64 24
  %27 = load ptr, ptr %26, align 8, !tbaa !19
  tail call void @free(ptr noundef %27) #27
  store ptr null, ptr %26, align 8, !tbaa !19
  ret void

28:                                               ; preds = %.lr.ph, %28
  %indvars.iv = phi i64 [ 0, %.lr.ph ], [ %indvars.iv.next, %28 ]
  %29 = load ptr, ptr %25, align 8, !tbaa !19
  %30 = getelementptr inbounds nuw ptr, ptr %29, i64 %indvars.iv
  %31 = load ptr, ptr %30, align 8, !tbaa !27
  tail call void @free(ptr noundef %31) #27
  %32 = load ptr, ptr %25, align 8, !tbaa !19
  %33 = getelementptr inbounds nuw ptr, ptr %32, i64 %indvars.iv
  store ptr null, ptr %33, align 8, !tbaa !27
  %indvars.iv.next = add nuw nsw i64 %indvars.iv, 1
  %34 = load i32, ptr %0, align 8, !tbaa !6
  %35 = sext i32 %34 to i64
  %36 = icmp slt i64 %indvars.iv.next, %35
  br i1 %36, label %28, label %._crit_edge
}